
mem-lat:     file format elf64-x86-64


Disassembly of section .init:

0000000000001000 <_init>:
    1000:	f3 0f 1e fa          	endbr64
    1004:	48 83 ec 08          	sub    $0x8,%rsp
    1008:	48 8b 05 c1 2f 00 00 	mov    0x2fc1(%rip),%rax        # 3fd0 <__gmon_start__@Base>
    100f:	48 85 c0             	test   %rax,%rax
    1012:	74 02                	je     1016 <_init+0x16>
    1014:	ff d0                	call   *%rax
    1016:	48 83 c4 08          	add    $0x8,%rsp
    101a:	c3                   	ret

Disassembly of section .plt:

0000000000001020 <free@plt-0x10>:
    1020:	ff 35 ca 2f 00 00    	push   0x2fca(%rip)        # 3ff0 <_GLOBAL_OFFSET_TABLE_+0x8>
    1026:	ff 25 cc 2f 00 00    	jmp    *0x2fcc(%rip)        # 3ff8 <_GLOBAL_OFFSET_TABLE_+0x10>
    102c:	0f 1f 40 00          	nopl   0x0(%rax)

0000000000001030 <free@plt>:
    1030:	ff 25 ca 2f 00 00    	jmp    *0x2fca(%rip)        # 4000 <free@GLIBC_2.2.5>
    1036:	68 00 00 00 00       	push   $0x0
    103b:	e9 e0 ff ff ff       	jmp    1020 <_init+0x20>

0000000000001040 <puts@plt>:
    1040:	ff 25 c2 2f 00 00    	jmp    *0x2fc2(%rip)        # 4008 <puts@GLIBC_2.2.5>
    1046:	68 01 00 00 00       	push   $0x1
    104b:	e9 d0 ff ff ff       	jmp    1020 <_init+0x20>

0000000000001050 <__stack_chk_fail@plt>:
    1050:	ff 25 ba 2f 00 00    	jmp    *0x2fba(%rip)        # 4010 <__stack_chk_fail@GLIBC_2.4>
    1056:	68 02 00 00 00       	push   $0x2
    105b:	e9 c0 ff ff ff       	jmp    1020 <_init+0x20>

0000000000001060 <mmap@plt>:
    1060:	ff 25 b2 2f 00 00    	jmp    *0x2fb2(%rip)        # 4018 <mmap@GLIBC_2.2.5>
    1066:	68 03 00 00 00       	push   $0x3
    106b:	e9 b0 ff ff ff       	jmp    1020 <_init+0x20>

0000000000001070 <printf@plt>:
    1070:	ff 25 aa 2f 00 00    	jmp    *0x2faa(%rip)        # 4020 <printf@GLIBC_2.2.5>
    1076:	68 04 00 00 00       	push   $0x4
    107b:	e9 a0 ff ff ff       	jmp    1020 <_init+0x20>

0000000000001080 <gettimeofday@plt>:
    1080:	ff 25 a2 2f 00 00    	jmp    *0x2fa2(%rip)        # 4028 <gettimeofday@GLIBC_2.2.5>
    1086:	68 05 00 00 00       	push   $0x5
    108b:	e9 90 ff ff ff       	jmp    1020 <_init+0x20>

0000000000001090 <malloc@plt>:
    1090:	ff 25 9a 2f 00 00    	jmp    *0x2f9a(%rip)        # 4030 <malloc@GLIBC_2.2.5>
    1096:	68 06 00 00 00       	push   $0x6
    109b:	e9 80 ff ff ff       	jmp    1020 <_init+0x20>

00000000000010a0 <munmap@plt>:
    10a0:	ff 25 92 2f 00 00    	jmp    *0x2f92(%rip)        # 4038 <munmap@GLIBC_2.2.5>
    10a6:	68 07 00 00 00       	push   $0x7
    10ab:	e9 70 ff ff ff       	jmp    1020 <_init+0x20>

00000000000010b0 <atoi@plt>:
    10b0:	ff 25 8a 2f 00 00    	jmp    *0x2f8a(%rip)        # 4040 <atoi@GLIBC_2.2.5>
    10b6:	68 08 00 00 00       	push   $0x8
    10bb:	e9 60 ff ff ff       	jmp    1020 <_init+0x20>

00000000000010c0 <exit@plt>:
    10c0:	ff 25 82 2f 00 00    	jmp    *0x2f82(%rip)        # 4048 <exit@GLIBC_2.2.5>
    10c6:	68 09 00 00 00       	push   $0x9
    10cb:	e9 50 ff ff ff       	jmp    1020 <_init+0x20>

00000000000010d0 <rand@plt>:
    10d0:	ff 25 7a 2f 00 00    	jmp    *0x2f7a(%rip)        # 4050 <rand@GLIBC_2.2.5>
    10d6:	68 0a 00 00 00       	push   $0xa
    10db:	e9 40 ff ff ff       	jmp    1020 <_init+0x20>

Disassembly of section .text:

00000000000010e0 <_start>:
    10e0:	f3 0f 1e fa          	endbr64
    10e4:	31 ed                	xor    %ebp,%ebp
    10e6:	49 89 d1             	mov    %rdx,%r9
    10e9:	5e                   	pop    %rsi
    10ea:	48 89 e2             	mov    %rsp,%rdx
    10ed:	48 83 e4 f0          	and    $0xfffffffffffffff0,%rsp
    10f1:	50                   	push   %rax
    10f2:	54                   	push   %rsp
    10f3:	45 31 c0             	xor    %r8d,%r8d
    10f6:	31 c9                	xor    %ecx,%ecx
    10f8:	48 8d 3d 2c 01 00 00 	lea    0x12c(%rip),%rdi        # 122b <main>
    10ff:	ff 15 bb 2e 00 00    	call   *0x2ebb(%rip)        # 3fc0 <__libc_start_main@GLIBC_2.34>
    1105:	f4                   	hlt
    1106:	66 2e 0f 1f 84 00 00 	cs nopw 0x0(%rax,%rax,1)
    110d:	00 00 00 
    1110:	48 8d 3d 51 2f 00 00 	lea    0x2f51(%rip),%rdi        # 4068 <__TMC_END__>
    1117:	48 8d 05 4a 2f 00 00 	lea    0x2f4a(%rip),%rax        # 4068 <__TMC_END__>
    111e:	48 39 f8             	cmp    %rdi,%rax
    1121:	74 15                	je     1138 <_start+0x58>
    1123:	48 8b 05 9e 2e 00 00 	mov    0x2e9e(%rip),%rax        # 3fc8 <_ITM_deregisterTMCloneTable@Base>
    112a:	48 85 c0             	test   %rax,%rax
    112d:	74 09                	je     1138 <_start+0x58>
    112f:	ff e0                	jmp    *%rax
    1131:	0f 1f 80 00 00 00 00 	nopl   0x0(%rax)
    1138:	c3                   	ret
    1139:	0f 1f 80 00 00 00 00 	nopl   0x0(%rax)
    1140:	48 8d 3d 21 2f 00 00 	lea    0x2f21(%rip),%rdi        # 4068 <__TMC_END__>
    1147:	48 8d 35 1a 2f 00 00 	lea    0x2f1a(%rip),%rsi        # 4068 <__TMC_END__>
    114e:	48 29 fe             	sub    %rdi,%rsi
    1151:	48 89 f0             	mov    %rsi,%rax
    1154:	48 c1 ee 3f          	shr    $0x3f,%rsi
    1158:	48 c1 f8 03          	sar    $0x3,%rax
    115c:	48 01 c6             	add    %rax,%rsi
    115f:	48 d1 fe             	sar    $1,%rsi
    1162:	74 14                	je     1178 <_start+0x98>
    1164:	48 8b 05 6d 2e 00 00 	mov    0x2e6d(%rip),%rax        # 3fd8 <_ITM_registerTMCloneTable@Base>
    116b:	48 85 c0             	test   %rax,%rax
    116e:	74 08                	je     1178 <_start+0x98>
    1170:	ff e0                	jmp    *%rax
    1172:	66 0f 1f 44 00 00    	nopw   0x0(%rax,%rax,1)
    1178:	c3                   	ret
    1179:	0f 1f 80 00 00 00 00 	nopl   0x0(%rax)
    1180:	f3 0f 1e fa          	endbr64
    1184:	80 3d dd 2e 00 00 00 	cmpb   $0x0,0x2edd(%rip)        # 4068 <__TMC_END__>
    118b:	75 33                	jne    11c0 <_start+0xe0>
    118d:	55                   	push   %rbp
    118e:	48 83 3d 4a 2e 00 00 	cmpq   $0x0,0x2e4a(%rip)        # 3fe0 <__cxa_finalize@GLIBC_2.2.5>
    1195:	00 
    1196:	48 89 e5             	mov    %rsp,%rbp
    1199:	74 0d                	je     11a8 <_start+0xc8>
    119b:	48 8b 3d be 2e 00 00 	mov    0x2ebe(%rip),%rdi        # 4060 <__dso_handle>
    11a2:	ff 15 38 2e 00 00    	call   *0x2e38(%rip)        # 3fe0 <__cxa_finalize@GLIBC_2.2.5>
    11a8:	e8 63 ff ff ff       	call   1110 <_start+0x30>
    11ad:	c6 05 b4 2e 00 00 01 	movb   $0x1,0x2eb4(%rip)        # 4068 <__TMC_END__>
    11b4:	5d                   	pop    %rbp
    11b5:	c3                   	ret
    11b6:	66 2e 0f 1f 84 00 00 	cs nopw 0x0(%rax,%rax,1)
    11bd:	00 00 00 
    11c0:	c3                   	ret
    11c1:	66 66 2e 0f 1f 84 00 	data16 cs nopw 0x0(%rax,%rax,1)
    11c8:	00 00 00 00 
    11cc:	0f 1f 40 00          	nopl   0x0(%rax)
    11d0:	f3 0f 1e fa          	endbr64
    11d4:	e9 67 ff ff ff       	jmp    1140 <_start+0x60>

00000000000011d9 <usage>:
#define TEN FIVE FIVE
#define FIFTY   TEN TEN TEN TEN TEN
#define HUNDRED FIFTY FIFTY

static void usage()
{
    11d9:	55                   	push   %rbp
    11da:	48 89 e5             	mov    %rsp,%rbp
    printf("Usage: ./mem-lat -b xxx -n xxx -s xxx\n");
    11dd:	48 8d 05 24 0e 00 00 	lea    0xe24(%rip),%rax        # 2008 <_IO_stdin_used+0x8>
    11e4:	48 89 c7             	mov    %rax,%rdi
    11e7:	e8 54 fe ff ff       	call   1040 <puts@plt>
    printf("   -b buffer size in KB\n");
    11ec:	48 8d 05 3b 0e 00 00 	lea    0xe3b(%rip),%rax        # 202e <_IO_stdin_used+0x2e>
    11f3:	48 89 c7             	mov    %rax,%rdi
    11f6:	e8 45 fe ff ff       	call   1040 <puts@plt>
    printf("   -n number of read\n\n");
    11fb:	48 8d 05 44 0e 00 00 	lea    0xe44(%rip),%rax        # 2046 <_IO_stdin_used+0x46>
    1202:	48 89 c7             	mov    %rax,%rdi
    1205:	e8 36 fe ff ff       	call   1040 <puts@plt>
    printf("   -s stride skipped before the next access\n\n");
    120a:	48 8d 05 4f 0e 00 00 	lea    0xe4f(%rip),%rax        # 2060 <_IO_stdin_used+0x60>
    1211:	48 89 c7             	mov    %rax,%rdi
    1214:	e8 27 fe ff ff       	call   1040 <puts@plt>
    printf("Please don't use non-decimal based number\n");
    1219:	48 8d 05 70 0e 00 00 	lea    0xe70(%rip),%rax        # 2090 <_IO_stdin_used+0x90>
    1220:	48 89 c7             	mov    %rax,%rdi
    1223:	e8 18 fe ff ff       	call   1040 <puts@plt>
}
    1228:	90                   	nop
    1229:	5d                   	pop    %rbp
    122a:	c3                   	ret

000000000000122b <main>:


int main(int argc, char* argv[])
{
    122b:	55                   	push   %rbp
    122c:	48 89 e5             	mov    %rsp,%rbp
    122f:	48 81 ec a0 00 00 00 	sub    $0xa0,%rsp
    1236:	89 bd 6c ff ff ff    	mov    %edi,-0x94(%rbp)
    123c:	48 89 b5 60 ff ff ff 	mov    %rsi,-0xa0(%rbp)
    1243:	64 48 8b 04 25 28 00 	mov    %fs:0x28,%rax
    124a:	00 00 
    124c:	48 89 45 f8          	mov    %rax,-0x8(%rbp)
    1250:	31 c0                	xor    %eax,%eax
  unsigned long i, j, size, tmp;
    unsigned long memsize = 0x800000; /* 1/4 LLC size of skylake, 1/5 of broadwell */
    1252:	48 c7 45 80 00 00 80 	movq   $0x800000,-0x80(%rbp)
    1259:	00 
    unsigned long count = 1048576; /* memsize / 64 * 8 */
    125a:	48 c7 45 88 00 00 10 	movq   $0x100000,-0x78(%rbp)
    1261:	00 
    unsigned int stride = 64; /* skipped amount of memory before the next access */
    1262:	c7 85 74 ff ff ff 40 	movl   $0x40,-0x8c(%rbp)
    1269:	00 00 00 
    unsigned long sec, usec;
    struct timeval tv1, tv2;
    struct timezone tz;
    unsigned int *indices;

    while (argc-- > 0) {
    126c:	e9 dd 00 00 00       	jmp    134e <main+0x123>
        if ((*argv)[0] == '-') {  /* look at first char of next */
    1271:	48 8b 85 60 ff ff ff 	mov    -0xa0(%rbp),%rax
    1278:	48 8b 00             	mov    (%rax),%rax
    127b:	0f b6 00             	movzbl (%rax),%eax
    127e:	3c 2d                	cmp    $0x2d,%al
    1280:	0f 85 c0 00 00 00    	jne    1346 <main+0x11b>
            switch ((*argv)[1]) {   /* look at second */
    1286:	48 8b 85 60 ff ff ff 	mov    -0xa0(%rbp),%rax
    128d:	48 8b 00             	mov    (%rax),%rax
    1290:	48 83 c0 01          	add    $0x1,%rax
    1294:	0f b6 00             	movzbl (%rax),%eax
    1297:	0f be c0             	movsbl %al,%eax
    129a:	83 f8 73             	cmp    $0x73,%eax
    129d:	74 6a                	je     1309 <main+0xde>
    129f:	83 f8 73             	cmp    $0x73,%eax
    12a2:	0f 8f 8a 00 00 00    	jg     1332 <main+0x107>
    12a8:	83 f8 62             	cmp    $0x62,%eax
    12ab:	74 07                	je     12b4 <main+0x89>
    12ad:	83 f8 6e             	cmp    $0x6e,%eax
    12b0:	74 2e                	je     12e0 <main+0xb5>
    12b2:	eb 7e                	jmp    1332 <main+0x107>
                case 'b':
                    argv++;
    12b4:	48 83 85 60 ff ff ff 	addq   $0x8,-0xa0(%rbp)
    12bb:	08 
                    argc--;
    12bc:	83 ad 6c ff ff ff 01 	subl   $0x1,-0x94(%rbp)
                    memsize = atoi(*argv) * 1024;
    12c3:	48 8b 85 60 ff ff ff 	mov    -0xa0(%rbp),%rax
    12ca:	48 8b 00             	mov    (%rax),%rax
    12cd:	48 89 c7             	mov    %rax,%rdi
    12d0:	e8 db fd ff ff       	call   10b0 <atoi@plt>
    12d5:	c1 e0 0a             	shl    $0xa,%eax
    12d8:	48 98                	cltq
    12da:	48 89 45 80          	mov    %rax,-0x80(%rbp)
                    break;
    12de:	eb 66                	jmp    1346 <main+0x11b>

                case 'n':
                    argv++;
    12e0:	48 83 85 60 ff ff ff 	addq   $0x8,-0xa0(%rbp)
    12e7:	08 
                    argc--;
    12e8:	83 ad 6c ff ff ff 01 	subl   $0x1,-0x94(%rbp)
                    count = atoi(*argv);
    12ef:	48 8b 85 60 ff ff ff 	mov    -0xa0(%rbp),%rax
    12f6:	48 8b 00             	mov    (%rax),%rax
    12f9:	48 89 c7             	mov    %rax,%rdi
    12fc:	e8 af fd ff ff       	call   10b0 <atoi@plt>
    1301:	48 98                	cltq
    1303:	48 89 45 88          	mov    %rax,-0x78(%rbp)
                    break;
    1307:	eb 3d                	jmp    1346 <main+0x11b>

                case 's':
                    argv++;
    1309:	48 83 85 60 ff ff ff 	addq   $0x8,-0xa0(%rbp)
    1310:	08 
                    argc--;
    1311:	83 ad 6c ff ff ff 01 	subl   $0x1,-0x94(%rbp)
                    stride = atoi(*argv);
    1318:	48 8b 85 60 ff ff ff 	mov    -0xa0(%rbp),%rax
    131f:	48 8b 00             	mov    (%rax),%rax
    1322:	48 89 c7             	mov    %rax,%rdi
    1325:	e8 86 fd ff ff       	call   10b0 <atoi@plt>
    132a:	89 85 74 ff ff ff    	mov    %eax,-0x8c(%rbp)
                    break;
    1330:	eb 14                	jmp    1346 <main+0x11b>

                default:
                    usage();
    1332:	b8 00 00 00 00       	mov    $0x0,%eax
    1337:	e8 9d fe ff ff       	call   11d9 <usage>
                    exit(1);
    133c:	bf 01 00 00 00       	mov    $0x1,%edi
    1341:	e8 7a fd ff ff       	call   10c0 <exit@plt>
                    break;
            }
        }
        argv++;
    1346:	48 83 85 60 ff ff ff 	addq   $0x8,-0xa0(%rbp)
    134d:	08 
    while (argc-- > 0) {
    134e:	8b 85 6c ff ff ff    	mov    -0x94(%rbp),%eax
    1354:	8d 50 ff             	lea    -0x1(%rax),%edx
    1357:	89 95 6c ff ff ff    	mov    %edx,-0x94(%rbp)
    135d:	85 c0                	test   %eax,%eax
    135f:	0f 8f 0c ff ff ff    	jg     1271 <main+0x46>
    }


  char* mem = mmap(NULL, memsize, PROT_READ | PROT_WRITE, MAP_PRIVATE | MAP_ANON, -1, 0);
    1365:	48 8b 45 80          	mov    -0x80(%rbp),%rax
    1369:	41 b9 00 00 00 00    	mov    $0x0,%r9d
    136f:	41 b8 ff ff ff ff    	mov    $0xffffffff,%r8d
    1375:	b9 22 00 00 00       	mov    $0x22,%ecx
    137a:	ba 03 00 00 00       	mov    $0x3,%edx
    137f:	48 89 c6             	mov    %rax,%rsi
    1382:	bf 00 00 00 00       	mov    $0x0,%edi
    1387:	e8 d4 fc ff ff       	call   1060 <mmap@plt>
    138c:	48 89 45 a0          	mov    %rax,-0x60(%rbp)
    // trick3: init pointer chasing, per stride=8 byte
    size = memsize / stride;
    1390:	8b b5 74 ff ff ff    	mov    -0x8c(%rbp),%esi
    1396:	48 8b 45 80          	mov    -0x80(%rbp),%rax
    139a:	ba 00 00 00 00       	mov    $0x0,%edx
    139f:	48 f7 f6             	div    %rsi
    13a2:	48 89 45 a8          	mov    %rax,-0x58(%rbp)
    indices = malloc(size * sizeof(int));
    13a6:	48 8b 45 a8          	mov    -0x58(%rbp),%rax
    13aa:	48 c1 e0 02          	shl    $0x2,%rax
    13ae:	48 89 c7             	mov    %rax,%rdi
    13b1:	e8 da fc ff ff       	call   1090 <malloc@plt>
    13b6:	48 89 45 b0          	mov    %rax,-0x50(%rbp)

    for (i = 0; i < size; i++)
    13ba:	48 c7 85 78 ff ff ff 	movq   $0x0,-0x88(%rbp)
    13c1:	00 00 00 00 
    13c5:	eb 27                	jmp    13ee <main+0x1c3>
        indices[i] = i;
    13c7:	48 8b 85 78 ff ff ff 	mov    -0x88(%rbp),%rax
    13ce:	48 8d 14 85 00 00 00 	lea    0x0(,%rax,4),%rdx
    13d5:	00 
    13d6:	48 8b 45 b0          	mov    -0x50(%rbp),%rax
    13da:	48 01 d0             	add    %rdx,%rax
    13dd:	48 8b 95 78 ff ff ff 	mov    -0x88(%rbp),%rdx
    13e4:	89 10                	mov    %edx,(%rax)
    for (i = 0; i < size; i++)
    13e6:	48 83 85 78 ff ff ff 	addq   $0x1,-0x88(%rbp)
    13ed:	01 
    13ee:	48 8b 85 78 ff ff ff 	mov    -0x88(%rbp),%rax
    13f5:	48 3b 45 a8          	cmp    -0x58(%rbp),%rax
    13f9:	72 cc                	jb     13c7 <main+0x19c>
    //shuffle indeaces  
    for (i = 0; i < size; i++) {
    13fb:	48 c7 85 78 ff ff ff 	movq   $0x0,-0x88(%rbp)
    1402:	00 00 00 00 
    1406:	e9 aa 00 00 00       	jmp    14b5 <main+0x28a>
         j = i +  rand() % (size - i);
    140b:	e8 c0 fc ff ff       	call   10d0 <rand@plt>
    1410:	48 98                	cltq
    1412:	48 8b 55 a8          	mov    -0x58(%rbp),%rdx
    1416:	48 89 d6             	mov    %rdx,%rsi
    1419:	48 2b b5 78 ff ff ff 	sub    -0x88(%rbp),%rsi
    1420:	ba 00 00 00 00       	mov    $0x0,%edx
    1425:	48 f7 f6             	div    %rsi
    1428:	48 89 d1             	mov    %rdx,%rcx
    142b:	48 89 ca             	mov    %rcx,%rdx
    142e:	48 8b 85 78 ff ff ff 	mov    -0x88(%rbp),%rax
    1435:	48 01 d0             	add    %rdx,%rax
    1438:	48 89 45 c0          	mov    %rax,-0x40(%rbp)
         if (i != j) {
    143c:	48 8b 85 78 ff ff ff 	mov    -0x88(%rbp),%rax
    1443:	48 3b 45 c0          	cmp    -0x40(%rbp),%rax
    1447:	74 64                	je     14ad <main+0x282>
             tmp = indices[i];
    1449:	48 8b 85 78 ff ff ff 	mov    -0x88(%rbp),%rax
    1450:	48 8d 14 85 00 00 00 	lea    0x0(,%rax,4),%rdx
    1457:	00 
    1458:	48 8b 45 b0          	mov    -0x50(%rbp),%rax
    145c:	48 01 d0             	add    %rdx,%rax
    145f:	8b 00                	mov    (%rax),%eax
    1461:	89 c0                	mov    %eax,%eax
    1463:	48 89 45 b8          	mov    %rax,-0x48(%rbp)
             indices[i] = indices[j];
    1467:	48 8b 45 c0          	mov    -0x40(%rbp),%rax
    146b:	48 8d 14 85 00 00 00 	lea    0x0(,%rax,4),%rdx
    1472:	00 
    1473:	48 8b 45 b0          	mov    -0x50(%rbp),%rax
    1477:	48 01 d0             	add    %rdx,%rax
    147a:	48 8b 95 78 ff ff ff 	mov    -0x88(%rbp),%rdx
    1481:	48 8d 0c 95 00 00 00 	lea    0x0(,%rdx,4),%rcx
    1488:	00 
    1489:	48 8b 55 b0          	mov    -0x50(%rbp),%rdx
    148d:	48 01 ca             	add    %rcx,%rdx
    1490:	8b 00                	mov    (%rax),%eax
    1492:	89 02                	mov    %eax,(%rdx)
             indices[j] = tmp;
    1494:	48 8b 45 c0          	mov    -0x40(%rbp),%rax
    1498:	48 8d 14 85 00 00 00 	lea    0x0(,%rax,4),%rdx
    149f:	00 
    14a0:	48 8b 45 b0          	mov    -0x50(%rbp),%rax
    14a4:	48 01 d0             	add    %rdx,%rax
    14a7:	48 8b 55 b8          	mov    -0x48(%rbp),%rdx
    14ab:	89 10                	mov    %edx,(%rax)
    for (i = 0; i < size; i++) {
    14ad:	48 83 85 78 ff ff ff 	addq   $0x1,-0x88(%rbp)
    14b4:	01 
    14b5:	48 8b 85 78 ff ff ff 	mov    -0x88(%rbp),%rax
    14bc:	48 3b 45 a8          	cmp    -0x58(%rbp),%rax
    14c0:	0f 82 45 ff ff ff    	jb     140b <main+0x1e0>
         }
     }
    // trick 2: fill mem with pointer references
    for (i = 0; i < size - 1; i++)
    14c6:	48 c7 85 78 ff ff ff 	movq   $0x0,-0x88(%rbp)
    14cd:	00 00 00 00 
    14d1:	eb 5f                	jmp    1532 <main+0x307>
        *(char **)&mem[indices[i]*stride]= (char*)&mem[indices[i+1]*stride];
    14d3:	48 8b 85 78 ff ff ff 	mov    -0x88(%rbp),%rax
    14da:	48 83 c0 01          	add    $0x1,%rax
    14de:	48 8d 14 85 00 00 00 	lea    0x0(,%rax,4),%rdx
    14e5:	00 
    14e6:	48 8b 45 b0          	mov    -0x50(%rbp),%rax
    14ea:	48 01 d0             	add    %rdx,%rax
    14ed:	8b 00                	mov    (%rax),%eax
    14ef:	0f af 85 74 ff ff ff 	imul   -0x8c(%rbp),%eax
    14f6:	89 c1                	mov    %eax,%ecx
    14f8:	48 8b 85 78 ff ff ff 	mov    -0x88(%rbp),%rax
    14ff:	48 8d 14 85 00 00 00 	lea    0x0(,%rax,4),%rdx
    1506:	00 
    1507:	48 8b 45 b0          	mov    -0x50(%rbp),%rax
    150b:	48 01 d0             	add    %rdx,%rax
    150e:	8b 00                	mov    (%rax),%eax
    1510:	0f af 85 74 ff ff ff 	imul   -0x8c(%rbp),%eax
    1517:	89 c2                	mov    %eax,%edx
    1519:	48 8b 45 a0          	mov    -0x60(%rbp),%rax
    151d:	48 01 d0             	add    %rdx,%rax
    1520:	48 8b 55 a0          	mov    -0x60(%rbp),%rdx
    1524:	48 01 ca             	add    %rcx,%rdx
    1527:	48 89 10             	mov    %rdx,(%rax)
    for (i = 0; i < size - 1; i++)
    152a:	48 83 85 78 ff ff ff 	addq   $0x1,-0x88(%rbp)
    1531:	01 
    1532:	48 8b 45 a8          	mov    -0x58(%rbp),%rax
    1536:	48 83 e8 01          	sub    $0x1,%rax
    153a:	48 39 85 78 ff ff ff 	cmp    %rax,-0x88(%rbp)
    1541:	72 90                	jb     14d3 <main+0x2a8>
    *(char **)&mem[indices[size-1]*stride]= (char*)&mem[indices[0]*stride];
    1543:	48 8b 45 b0          	mov    -0x50(%rbp),%rax
    1547:	8b 00                	mov    (%rax),%eax
    1549:	0f af 85 74 ff ff ff 	imul   -0x8c(%rbp),%eax
    1550:	89 c1                	mov    %eax,%ecx
    1552:	48 8b 45 a8          	mov    -0x58(%rbp),%rax
    1556:	48 c1 e0 02          	shl    $0x2,%rax
    155a:	48 8d 50 fc          	lea    -0x4(%rax),%rdx
    155e:	48 8b 45 b0          	mov    -0x50(%rbp),%rax
    1562:	48 01 d0             	add    %rdx,%rax
    1565:	8b 00                	mov    (%rax),%eax
    1567:	0f af 85 74 ff ff ff 	imul   -0x8c(%rbp),%eax
    156e:	89 c2                	mov    %eax,%edx
    1570:	48 8b 45 a0          	mov    -0x60(%rbp),%rax
    1574:	48 01 d0             	add    %rdx,%rax
    1577:	48 8b 55 a0          	mov    -0x60(%rbp),%rdx
    157b:	48 01 ca             	add    %rcx,%rdx
    157e:	48 89 10             	mov    %rdx,(%rax)

    register char **p = (char **) mem;
    tmp = count / 100;
    1581:	48 8b 45 88          	mov    -0x78(%rbp),%rax
    1585:	48 c1 e8 02          	shr    $0x2,%rax
    1589:	48 ba c3 f5 28 5c 8f 	movabs $0x28f5c28f5c28f5c3,%rdx
    1590:	c2 f5 28 
    1593:	48 f7 e2             	mul    %rdx
    1596:	48 89 d0             	mov    %rdx,%rax
    1599:	48 c1 e8 02          	shr    $0x2,%rax
    159d:	48 89 45 b8          	mov    %rax,-0x48(%rbp)

    gettimeofday (&tv1, &tz);
    15a1:	48 8d 55 c8          	lea    -0x38(%rbp),%rdx
    15a5:	48 8d 45 d0          	lea    -0x30(%rbp),%rax
    15a9:	48 89 d6             	mov    %rdx,%rsi
    15ac:	48 89 c7             	mov    %rax,%rdi
    15af:	e8 cc fa ff ff       	call   1080 <gettimeofday@plt>
    for (i = 0; i < tmp; ++i) {
    15b4:	48 c7 85 78 ff ff ff 	movq   $0x0,-0x88(%rbp)
    15bb:	00 00 00 00 
    15bf:	eb 08                	jmp    15c9 <main+0x39e>
    15c1:	48 83 85 78 ff ff ff 	addq   $0x1,-0x88(%rbp)
    15c8:	01 
    15c9:	48 8b 85 78 ff ff ff 	mov    -0x88(%rbp),%rax
    15d0:	48 3b 45 b8          	cmp    -0x48(%rbp),%rax
    15d4:	72 eb                	jb     15c1 <main+0x396>
        HUNDRED;  //trick 1
    }
    gettimeofday (&tv2, &tz);
    15d6:	48 8d 55 c8          	lea    -0x38(%rbp),%rdx
    15da:	48 8d 45 e0          	lea    -0x20(%rbp),%rax
    15de:	48 89 d6             	mov    %rdx,%rsi
    15e1:	48 89 c7             	mov    %rax,%rdi
    15e4:	e8 97 fa ff ff       	call   1080 <gettimeofday@plt>
    if (tv2.tv_usec < tv1.tv_usec) {
    15e9:	48 8b 55 e8          	mov    -0x18(%rbp),%rdx
    15ed:	48 8b 45 d8          	mov    -0x28(%rbp),%rax
    15f1:	48 39 c2             	cmp    %rax,%rdx
    15f4:	7d 2b                	jge    1621 <main+0x3f6>
        usec = 1000000 + tv2.tv_usec - tv1.tv_usec;
    15f6:	48 8b 45 e8          	mov    -0x18(%rbp),%rax
    15fa:	48 8d 90 40 42 0f 00 	lea    0xf4240(%rax),%rdx
    1601:	48 8b 45 d8          	mov    -0x28(%rbp),%rax
    1605:	48 29 c2             	sub    %rax,%rdx
    1608:	48 89 55 98          	mov    %rdx,-0x68(%rbp)
        sec = tv2.tv_sec - tv1.tv_sec - 1;
    160c:	48 8b 55 e0          	mov    -0x20(%rbp),%rdx
    1610:	48 8b 45 d0          	mov    -0x30(%rbp),%rax
    1614:	48 29 c2             	sub    %rax,%rdx
    1617:	48 8d 42 ff          	lea    -0x1(%rdx),%rax
    161b:	48 89 45 90          	mov    %rax,-0x70(%rbp)
    161f:	eb 1e                	jmp    163f <main+0x414>
    } else {
        usec = tv2.tv_usec - tv1.tv_usec;
    1621:	48 8b 55 e8          	mov    -0x18(%rbp),%rdx
    1625:	48 8b 45 d8          	mov    -0x28(%rbp),%rax
    1629:	48 29 c2             	sub    %rax,%rdx
    162c:	48 89 55 98          	mov    %rdx,-0x68(%rbp)
        sec = tv2.tv_sec - tv1.tv_sec;
    1630:	48 8b 55 e0          	mov    -0x20(%rbp),%rdx
    1634:	48 8b 45 d0          	mov    -0x30(%rbp),%rax
    1638:	48 29 c2             	sub    %rax,%rdx
    163b:	48 89 55 90          	mov    %rdx,-0x70(%rbp)
    }

    printf("Buffer size: %ld KB, stride %d, time %d.%06d s, latency %.2f ns\n", 
            memsize/1024, stride, sec, usec, (sec * 1000000  + usec) * 1000.0 / (tmp *100));
    163f:	48 8b 45 90          	mov    -0x70(%rbp),%rax
    1643:	48 69 d0 40 42 0f 00 	imul   $0xf4240,%rax,%rdx
    164a:	48 8b 45 98          	mov    -0x68(%rbp),%rax
    164e:	48 01 d0             	add    %rdx,%rax
    1651:	48 85 c0             	test   %rax,%rax
    1654:	78 0b                	js     1661 <main+0x436>
    1656:	66 0f ef c0          	pxor   %xmm0,%xmm0
    165a:	f2 48 0f 2a c0       	cvtsi2sd %rax,%xmm0
    165f:	eb 19                	jmp    167a <main+0x44f>
    1661:	48 89 c2             	mov    %rax,%rdx
    1664:	48 d1 ea             	shr    $1,%rdx
    1667:	83 e0 01             	and    $0x1,%eax
    166a:	48 09 c2             	or     %rax,%rdx
    166d:	66 0f ef c0          	pxor   %xmm0,%xmm0
    1671:	f2 48 0f 2a c2       	cvtsi2sd %rdx,%xmm0
    1676:	f2 0f 58 c0          	addsd  %xmm0,%xmm0
    167a:	f2 0f 10 0d 86 0a 00 	movsd  0xa86(%rip),%xmm1        # 2108 <_IO_stdin_used+0x108>
    1681:	00 
    1682:	f2 0f 59 c8          	mulsd  %xmm0,%xmm1
    1686:	48 8b 55 b8          	mov    -0x48(%rbp),%rdx
    168a:	48 89 d0             	mov    %rdx,%rax
    168d:	48 c1 e0 02          	shl    $0x2,%rax
    1691:	48 01 d0             	add    %rdx,%rax
    1694:	48 8d 14 85 00 00 00 	lea    0x0(,%rax,4),%rdx
    169b:	00 
    169c:	48 01 d0             	add    %rdx,%rax
    169f:	48 c1 e0 02          	shl    $0x2,%rax
    printf("Buffer size: %ld KB, stride %d, time %d.%06d s, latency %.2f ns\n", 
    16a3:	48 85 c0             	test   %rax,%rax
    16a6:	78 0b                	js     16b3 <main+0x488>
    16a8:	66 0f ef c0          	pxor   %xmm0,%xmm0
    16ac:	f2 48 0f 2a c0       	cvtsi2sd %rax,%xmm0
    16b1:	eb 19                	jmp    16cc <main+0x4a1>
    16b3:	48 89 c2             	mov    %rax,%rdx
    16b6:	48 d1 ea             	shr    $1,%rdx
    16b9:	83 e0 01             	and    $0x1,%eax
    16bc:	48 09 c2             	or     %rax,%rdx
    16bf:	66 0f ef c0          	pxor   %xmm0,%xmm0
    16c3:	f2 48 0f 2a c2       	cvtsi2sd %rdx,%xmm0
    16c8:	f2 0f 58 c0          	addsd  %xmm0,%xmm0
    16cc:	f2 0f 5e c8          	divsd  %xmm0,%xmm1
    16d0:	66 48 0f 7e c9       	movq   %xmm1,%rcx
    16d5:	48 8b 45 80          	mov    -0x80(%rbp),%rax
    16d9:	48 c1 e8 0a          	shr    $0xa,%rax
    16dd:	48 89 c6             	mov    %rax,%rsi
    16e0:	48 8b 7d 98          	mov    -0x68(%rbp),%rdi
    16e4:	48 8b 55 90          	mov    -0x70(%rbp),%rdx
    16e8:	8b 85 74 ff ff ff    	mov    -0x8c(%rbp),%eax
    16ee:	66 48 0f 6e c1       	movq   %rcx,%xmm0
    16f3:	49 89 f8             	mov    %rdi,%r8
    16f6:	48 89 d1             	mov    %rdx,%rcx
    16f9:	89 c2                	mov    %eax,%edx
    16fb:	48 8d 05 be 09 00 00 	lea    0x9be(%rip),%rax        # 20c0 <_IO_stdin_used+0xc0>
    1702:	48 89 c7             	mov    %rax,%rdi
    1705:	b8 01 00 00 00       	mov    $0x1,%eax
    170a:	e8 61 f9 ff ff       	call   1070 <printf@plt>
    munmap(mem, memsize);
    170f:	48 8b 55 80          	mov    -0x80(%rbp),%rdx
    1713:	48 8b 45 a0          	mov    -0x60(%rbp),%rax
    1717:	48 89 d6             	mov    %rdx,%rsi
    171a:	48 89 c7             	mov    %rax,%rdi
    171d:	e8 7e f9 ff ff       	call   10a0 <munmap@plt>
    free(indices);
    1722:	48 8b 45 b0          	mov    -0x50(%rbp),%rax
    1726:	48 89 c7             	mov    %rax,%rdi
    1729:	e8 02 f9 ff ff       	call   1030 <free@plt>
    172e:	b8 00 00 00 00       	mov    $0x0,%eax
}
    1733:	48 8b 55 f8          	mov    -0x8(%rbp),%rdx
    1737:	64 48 2b 14 25 28 00 	sub    %fs:0x28,%rdx
    173e:	00 00 
    1740:	74 05                	je     1747 <main+0x51c>
    1742:	e8 09 f9 ff ff       	call   1050 <__stack_chk_fail@plt>
    1747:	c9                   	leave
    1748:	c3                   	ret

Disassembly of section .fini:

000000000000174c <_fini>:
    174c:	f3 0f 1e fa          	endbr64
    1750:	48 83 ec 08          	sub    $0x8,%rsp
    1754:	48 83 c4 08          	add    $0x8,%rsp
    1758:	c3                   	ret
